target datalayout = "e-m:e-p270:32:32-p271:32:32-p272:64:64-i64:64-i128:128-f80:128-n8:16:32:64-S128"
target triple = "x86_64-pc-linux-gnu"

@.str.190 = private unnamed_addr constant [3 x i8] c"\\/\00", align 1
@GetFileNameWithoutExt.fileName = internal global [256 x i8] zeroinitializer, align 16

; Function Attrs: nounwind uwtable
define internal ptr @strprbrk(ptr noundef %0, ptr noundef %1) #0 {
  %3 = alloca ptr, align 8
  %4 = alloca ptr, align 8
  %5 = alloca ptr, align 8
  store ptr %0, ptr %3, align 8
  store ptr %1, ptr %4, align 8
  call void @llvm.lifetime.start.p0(i64 8, ptr %5) #16
  store ptr null, ptr %5, align 8
  br label %6

6:                                                ; preds = %13, %2
  %7 = load ptr, ptr %3, align 8
  %8 = load ptr, ptr %4, align 8
  %9 = call ptr @strpbrk(ptr noundef %7, ptr noundef %8) #17
  store ptr %9, ptr %3, align 8
  %10 = load ptr, ptr %3, align 8
  %11 = icmp ne ptr %10, null
  br i1 %11, label %12, label %16

12:                                               ; preds = %6
  br label %13

13:                                               ; preds = %12
  %14 = load ptr, ptr %3, align 8
  %15 = getelementptr inbounds nuw i8, ptr %14, i32 1
  store ptr %15, ptr %3, align 8
  store ptr %14, ptr %5, align 8
  br label %6

16:                                               ; preds = %6
  %17 = load ptr, ptr %5, align 8
  call void @llvm.lifetime.end.p0(i64 8, ptr %5) #16
  ret ptr %17
}

; Function Attrs: nounwind uwtable
define ptr @GetFileName(ptr noundef %0) #0 {
  %2 = alloca ptr, align 8
  %3 = alloca ptr, align 8
  %4 = alloca ptr, align 8
  %5 = alloca i32, align 4
  store ptr %0, ptr %3, align 8
  call void @llvm.lifetime.start.p0(i64 8, ptr %4) #16
  store ptr null, ptr %4, align 8
  %6 = load ptr, ptr %3, align 8
  %7 = icmp ne ptr %6, null
  br i1 %7, label %8, label %11

8:                                                ; preds = %1
  %9 = load ptr, ptr %3, align 8
  %10 = call ptr @strprbrk(ptr noundef %9, ptr noundef @.str.190)
  store ptr %10, ptr %4, align 8
  br label %11

11:                                               ; preds = %8, %1
  %12 = load ptr, ptr %4, align 8
  %13 = icmp eq ptr %12, null
  br i1 %13, label %14, label %16

14:                                               ; preds = %11
  %15 = load ptr, ptr %3, align 8
  store ptr %15, ptr %2, align 8
  store i32 1, ptr %5, align 4
  br label %19

16:                                               ; preds = %11
  %17 = load ptr, ptr %4, align 8
  %18 = getelementptr inbounds i8, ptr %17, i64 1
  store ptr %18, ptr %2, align 8
  store i32 1, ptr %5, align 4
  br label %19

19:                                               ; preds = %16, %14
  call void @llvm.lifetime.end.p0(i64 8, ptr %4) #16
  %20 = load ptr, ptr %2, align 8
  ret ptr %20
}

; Function Attrs: nounwind uwtable
define ptr @GetFileNameWithoutExt(ptr noundef %0) #0 {
  %2 = alloca ptr, align 8
  %3 = alloca i32, align 4
  %4 = alloca i32, align 4
  %5 = alloca i32, align 4
  store ptr %0, ptr %2, align 8
  call void @llvm.memset.p0.i64(ptr align 16 @GetFileNameWithoutExt.fileName, i8 0, i64 256, i1 false)
  %6 = load ptr, ptr %2, align 8
  %7 = icmp ne ptr %6, null
  br i1 %7, label %8, label %36

8:                                                ; preds = %1
  %9 = load ptr, ptr %2, align 8
  %10 = call ptr @GetFileName(ptr noundef %9)
  %11 = call ptr @strcpy(ptr noundef @GetFileNameWithoutExt.fileName, ptr noundef %10) #16
  call void @llvm.lifetime.start.p0(i64 4, ptr %3) #16
  %12 = call i64 @strlen(ptr noundef @GetFileNameWithoutExt.fileName) #17
  %13 = trunc i64 %12 to i32
  store i32 %13, ptr %3, align 4
  call void @llvm.lifetime.start.p0(i64 4, ptr %4) #16
  %14 = load i32, ptr %3, align 4
  store i32 %14, ptr %4, align 4
  br label %15

15:                                               ; preds = %31, %8
  %16 = load i32, ptr %4, align 4
  %17 = icmp sgt i32 %16, 0
  br i1 %17, label %19, label %18

18:                                               ; preds = %15
  store i32 2, ptr %5, align 4
  br label %34

19:                                               ; preds = %15
  %20 = load i32, ptr %4, align 4
  %21 = sext i32 %20 to i64
  %22 = getelementptr inbounds [256 x i8], ptr @GetFileNameWithoutExt.fileName, i64 0, i64 %21
  %23 = load i8, ptr %22, align 1
  %24 = sext i8 %23 to i32
  %25 = icmp eq i32 %24, 46
  br i1 %25, label %26, label %30

26:                                               ; preds = %19
  %27 = load i32, ptr %4, align 4
  %28 = sext i32 %27 to i64
  %29 = getelementptr inbounds [256 x i8], ptr @GetFileNameWithoutExt.fileName, i64 0, i64 %28
  store i8 0, ptr %29, align 1
  store i32 2, ptr %5, align 4
  br label %34

30:                                               ; preds = %19
  br label %31

31:                                               ; preds = %30
  %32 = load i32, ptr %4, align 4
  %33 = add nsw i32 %32, -1
  store i32 %33, ptr %4, align 4
  br label %15

34:                                               ; preds = %26, %18
  call void @llvm.lifetime.end.p0(i64 4, ptr %4) #16
  br label %35

35:                                               ; preds = %34
  call void @llvm.lifetime.end.p0(i64 4, ptr %3) #16
  br label %36

36:                                               ; preds = %35, %1
  ret ptr @GetFileNameWithoutExt.fileName
}