; Function Attrs: nofree nounwind memory(readwrite, inaccessiblemem: none) uwtable
define noundef nonnull ptr @GetFileNameWithoutExt(ptr noundef readonly %0) local_unnamed_addr #45 {
  tail call void @llvm.memset.p0.i64(ptr noundef nonnull align 16 dereferenceable(256) @GetFileNameWithoutExt.fileName, i8 0, i64 256, i1 false)
  %.not = icmp eq ptr %0, null
  br i1 %.not, label %.loopexit, label %.preheader.i

.preheader.i:                                     ; preds = %1, %.preheader.i
  %.05.i.i = phi ptr [ %3, %.preheader.i ], [ %0, %1 ]
  %.0.i.i = phi ptr [ %2, %.preheader.i ], [ null, %1 ]
  %2 = tail call ptr @strpbrk(ptr noundef nonnull %.05.i.i, ptr noundef nonnull @.str.190) #57
  %.not.i.i = icmp eq ptr %2, null
  %3 = getelementptr inbounds nuw i8, ptr %2, i64 1
  br i1 %.not.i.i, label %GetFileName.exit, label %.preheader.i

GetFileName.exit:                                 ; preds = %.preheader.i
  %4 = icmp eq ptr %.0.i.i, null
  %5 = getelementptr inbounds nuw i8, ptr %.0.i.i, i64 1
  %.06.i = select i1 %4, ptr %0, ptr %5
  %6 = tail call ptr @strcpy(ptr noundef nonnull dereferenceable(1) @GetFileNameWithoutExt.fileName, ptr noundef nonnull dereferenceable(1) %.06.i) #56
  %7 = tail call i64 @strlen(ptr noundef nonnull dereferenceable(1) @GetFileNameWithoutExt.fileName) #57
  %8 = trunc i64 %7 to i32
  %9 = icmp sgt i32 %8, 0
  br i1 %9, label %.lr.ph, label %.loopexit

10:                                               ; preds = %.lr.ph
  %11 = add nsw i32 %.08, -1
  %12 = icmp sgt i32 %.08, 1
  br i1 %12, label %.lr.ph, label %.loopexit

.lr.ph:                                           ; preds = %GetFileName.exit, %10
  %.08 = phi i32 [ %11, %10 ], [ %8, %GetFileName.exit ]
  %13 = zext nneg i32 %.08 to i64
  %14 = getelementptr inbounds nuw [256 x i8], ptr @GetFileNameWithoutExt.fileName, i64 0, i64 %13
  %15 = load i8, ptr %14, align 1
  %16 = icmp eq i8 %15, 46
  br i1 %16, label %17, label %10

17:                                               ; preds = %.lr.ph
  %18 = getelementptr inbounds nuw [256 x i8], ptr @GetFileNameWithoutExt.fileName, i64 0, i64 %13
  store i8 0, ptr %18, align 1
  br label %.loopexit

.loopexit:                                        ; preds = %10, %GetFileName.exit, %17, %1
  ret ptr @GetFileNameWithoutExt.fileName
}